target datalayout = "e-m:e-p270:32:32-p271:32:32-p272:64:64-i64:64-i128:128-f80:128-n8:16:32:64-S128"
target triple = "x86_64-pc-linux-gnu"

%struct.SDL_Surface = type { i32, i32, i32, i32, i32, ptr, i32, ptr, i32, i32, ptr, i32, ptr, i32, ptr, i32, %struct.SDL_Rect, %struct.SDL_BlitMap }
%struct.SDL_Rect = type { i32, i32, i32, i32 }
%struct.SDL_BlitMap = type { i32, ptr, ptr, %struct.SDL_BlitInfo, i32, i32 }
%struct.SDL_BlitInfo = type { ptr, ptr, i32, i32, i32, i32, ptr, ptr, i32, i32, i32, i32, ptr, ptr, ptr, ptr, ptr, ptr, i32, i32, i8, i8, i8, i8 }

@SDL_surface_magic = internal global i8 0, align 1
@.str = private unnamed_addr constant [26 x i8] c"Parameter '%s' is invalid\00", align 1
@.str.5 = private unnamed_addr constant [8 x i8] c"surface\00", align 1
@.str.14 = private unnamed_addr constant [32 x i8] c"That operation is not supported\00", align 1
@.str.26 = private unnamed_addr constant [2 x i8] c"x\00", align 1
@.str.27 = private unnamed_addr constant [2 x i8] c"y\00", align 1

; Function Attrs: nounwind uwtable
define hidden zeroext i1 @SDL_SurfaceValid(ptr noundef %0) #0 {
  %2 = alloca ptr, align 8
  store ptr %0, ptr %2, align 8
  %3 = load ptr, ptr %2, align 8
  %4 = icmp ne ptr %3, null
  br i1 %4, label %5, label %10

5:                                                ; preds = %1
  %6 = load ptr, ptr %2, align 8
  %7 = getelementptr inbounds nuw %struct.SDL_Surface, ptr %6, i32 0, i32 7
  %8 = load ptr, ptr %7, align 8
  %9 = icmp eq ptr %8, @SDL_surface_magic
  br label %10

10:                                               ; preds = %5, %1
  %11 = phi i1 [ false, %1 ], [ %9, %5 ]
  ret i1 %11
}

; Function Attrs: nounwind uwtable
define hidden zeroext i1 @SDL_WriteSurfacePixel_REAL(ptr noundef %0, i32 noundef %1, i32 noundef %2, i8 noundef zeroext %3, i8 noundef zeroext %4, i8 noundef zeroext %5, i8 noundef zeroext %6) #0 {
  %8 = alloca i1, align 1
  %9 = alloca ptr, align 8
  %10 = alloca i32, align 4
  %11 = alloca i32, align 4
  %12 = alloca i8, align 1
  %13 = alloca i8, align 1
  %14 = alloca i8, align 1
  %15 = alloca i8, align 1
  %16 = alloca i32, align 4
  %17 = alloca i64, align 8
  %18 = alloca ptr, align 8
  %19 = alloca i8, align 1
  %20 = alloca i32, align 4
  %21 = alloca [4 x i8], align 1
  store ptr %0, ptr %9, align 8
  store i32 %1, ptr %10, align 4
  store i32 %2, ptr %11, align 4
  store i8 %3, ptr %12, align 1
  store i8 %4, ptr %13, align 1
  store i8 %5, ptr %14, align 1
  store i8 %6, ptr %15, align 1
  call void @llvm.lifetime.start.p0(i64 4, ptr %16) #8
  store i32 0, ptr %16, align 4
  call void @llvm.lifetime.start.p0(i64 8, ptr %17) #8
  call void @llvm.lifetime.start.p0(i64 8, ptr %18) #8
  call void @llvm.lifetime.start.p0(i64 1, ptr %19) #8
  store i8 0, ptr %19, align 1
  %22 = load ptr, ptr %9, align 8
  %23 = call zeroext i1 @SDL_SurfaceValid(ptr noundef %22)
  br i1 %23, label %24, label %34

24:                                               ; preds = %7
  %25 = load ptr, ptr %9, align 8
  %26 = getelementptr inbounds nuw %struct.SDL_Surface, ptr %25, i32 0, i32 1
  %27 = load i32, ptr %26, align 4
  %28 = icmp ne i32 %27, 0
  br i1 %28, label %29, label %34

29:                                               ; preds = %24
  %30 = load ptr, ptr %9, align 8
  %31 = getelementptr inbounds nuw %struct.SDL_Surface, ptr %30, i32 0, i32 5
  %32 = load ptr, ptr %31, align 8
  %33 = icmp ne ptr %32, null
  br i1 %33, label %36, label %34

34:                                               ; preds = %29, %24, %7
  %35 = call zeroext i1 (ptr, ...) @SDL_SetError_REAL(ptr noundef @.str, ptr noundef @.str.5)
  store i1 %35, ptr %8, align 1
  store i32 1, ptr %20, align 4
  br label %208

36:                                               ; preds = %29
  %37 = load i32, ptr %10, align 4
  %38 = icmp slt i32 %37, 0
  br i1 %38, label %45, label %39

39:                                               ; preds = %36
  %40 = load i32, ptr %10, align 4
  %41 = load ptr, ptr %9, align 8
  %42 = getelementptr inbounds nuw %struct.SDL_Surface, ptr %41, i32 0, i32 2
  %43 = load i32, ptr %42, align 8
  %44 = icmp sge i32 %40, %43
  br i1 %44, label %45, label %47

45:                                               ; preds = %39, %36
  %46 = call zeroext i1 (ptr, ...) @SDL_SetError_REAL(ptr noundef @.str, ptr noundef @.str.26)
  store i1 %46, ptr %8, align 1
  store i32 1, ptr %20, align 4
  br label %208

47:                                               ; preds = %39
  %48 = load i32, ptr %11, align 4
  %49 = icmp slt i32 %48, 0
  br i1 %49, label %56, label %50

50:                                               ; preds = %47
  %51 = load i32, ptr %11, align 4
  %52 = load ptr, ptr %9, align 8
  %53 = getelementptr inbounds nuw %struct.SDL_Surface, ptr %52, i32 0, i32 3
  %54 = load i32, ptr %53, align 4
  %55 = icmp sge i32 %51, %54
  br i1 %55, label %56, label %58

56:                                               ; preds = %50, %47
  %57 = call zeroext i1 (ptr, ...) @SDL_SetError_REAL(ptr noundef @.str, ptr noundef @.str.27)
  store i1 %57, ptr %8, align 1
  store i32 1, ptr %20, align 4
  br label %208

58:                                               ; preds = %50
  %59 = load ptr, ptr %9, align 8
  %60 = getelementptr inbounds nuw %struct.SDL_Surface, ptr %59, i32 0, i32 1
  %61 = load i32, ptr %60, align 4
  %62 = icmp ne i32 %61, 0
  br i1 %62, label %63, label %93

63:                                               ; preds = %58
  %64 = load ptr, ptr %9, align 8
  %65 = getelementptr inbounds nuw %struct.SDL_Surface, ptr %64, i32 0, i32 1
  %66 = load i32, ptr %65, align 4
  %67 = lshr i32 %66, 28
  %68 = and i32 %67, 15
  %69 = icmp ne i32 %68, 1
  br i1 %69, label %70, label %93

70:                                               ; preds = %63
  %71 = load ptr, ptr %9, align 8
  %72 = getelementptr inbounds nuw %struct.SDL_Surface, ptr %71, i32 0, i32 1
  %73 = load i32, ptr %72, align 4
  %74 = icmp eq i32 %73, 844715353
  br i1 %74, label %90, label %75

75:                                               ; preds = %70
  %76 = load ptr, ptr %9, align 8
  %77 = getelementptr inbounds nuw %struct.SDL_Surface, ptr %76, i32 0, i32 1
  %78 = load i32, ptr %77, align 4
  %79 = icmp eq i32 %78, 1498831189
  br i1 %79, label %90, label %80

80:                                               ; preds = %75
  %81 = load ptr, ptr %9, align 8
  %82 = getelementptr inbounds nuw %struct.SDL_Surface, ptr %81, i32 0, i32 1
  %83 = load i32, ptr %82, align 4
  %84 = icmp eq i32 %83, 1431918169
  br i1 %84, label %90, label %85

85:                                               ; preds = %80
  %86 = load ptr, ptr %9, align 8
  %87 = getelementptr inbounds nuw %struct.SDL_Surface, ptr %86, i32 0, i32 1
  %88 = load i32, ptr %87, align 4
  %89 = icmp eq i32 %88, 808530000
  br label %90

90:                                               ; preds = %85, %80, %75, %70
  %91 = phi i1 [ true, %80 ], [ true, %75 ], [ true, %70 ], [ %89, %85 ]
  %92 = select i1 %91, i32 2, i32 1
  br label %99

93:                                               ; preds = %63, %58
  %94 = load ptr, ptr %9, align 8
  %95 = getelementptr inbounds nuw %struct.SDL_Surface, ptr %94, i32 0, i32 1
  %96 = load i32, ptr %95, align 4
  %97 = lshr i32 %96, 0
  %98 = and i32 %97, 255
  br label %99

99:                                               ; preds = %93, %90
  %100 = phi i32 [ %92, %90 ], [ %98, %93 ]
  %101 = zext i32 %100 to i64
  store i64 %101, ptr %17, align 8
  %102 = load ptr, ptr %9, align 8
  %103 = getelementptr inbounds nuw %struct.SDL_Surface, ptr %102, i32 0, i32 0
  %104 = load i32, ptr %103, align 8
  %105 = and i32 %104, 2
  %106 = icmp eq i32 %105, 2
  br i1 %106, label %107, label %112

107:                                              ; preds = %99
  %108 = load ptr, ptr %9, align 8
  %109 = call zeroext i1 @SDL_LockSurface_REAL(ptr noundef %108)
  br i1 %109, label %111, label %110

110:                                              ; preds = %107
  store i1 false, ptr %8, align 1
  store i32 1, ptr %20, align 4
  br label %208

111:                                              ; preds = %107
  br label %112

112:                                              ; preds = %111, %99
  %113 = load ptr, ptr %9, align 8
  %114 = getelementptr inbounds nuw %struct.SDL_Surface, ptr %113, i32 0, i32 5
  %115 = load ptr, ptr %114, align 8
  %116 = load i32, ptr %11, align 4
  %117 = load ptr, ptr %9, align 8
  %118 = getelementptr inbounds nuw %struct.SDL_Surface, ptr %117, i32 0, i32 4
  %119 = load i32, ptr %118, align 8
  %120 = mul nsw i32 %116, %119
  %121 = sext i32 %120 to i64
  %122 = getelementptr inbounds i8, ptr %115, i64 %121
  %123 = load i32, ptr %10, align 4
  %124 = sext i32 %123 to i64
  %125 = load i64, ptr %17, align 8
  %126 = mul i64 %124, %125
  %127 = getelementptr inbounds nuw i8, ptr %122, i64 %126
  store ptr %127, ptr %18, align 8
  %128 = load i64, ptr %17, align 8
  %129 = icmp ule i64 %128, 4
  br i1 %129, label %130, label %156

130:                                              ; preds = %112
  %131 = load ptr, ptr %9, align 8
  %132 = getelementptr inbounds nuw %struct.SDL_Surface, ptr %131, i32 0, i32 1
  %133 = load i32, ptr %132, align 4
  %134 = icmp ne i32 %133, 0
  br i1 %134, label %135, label %142

135:                                              ; preds = %130
  %136 = load ptr, ptr %9, align 8
  %137 = getelementptr inbounds nuw %struct.SDL_Surface, ptr %136, i32 0, i32 1
  %138 = load i32, ptr %137, align 4
  %139 = lshr i32 %138, 28
  %140 = and i32 %139, 15
  %141 = icmp ne i32 %140, 1
  br i1 %141, label %156, label %142

142:                                              ; preds = %135, %130
  %143 = load ptr, ptr %9, align 8
  %144 = getelementptr inbounds nuw %struct.SDL_Surface, ptr %143, i32 0, i32 10
  %145 = load ptr, ptr %144, align 8
  %146 = load ptr, ptr %9, align 8
  %147 = getelementptr inbounds nuw %struct.SDL_Surface, ptr %146, i32 0, i32 12
  %148 = load ptr, ptr %147, align 8
  %149 = load i8, ptr %12, align 1
  %150 = load i8, ptr %13, align 1
  %151 = load i8, ptr %14, align 1
  %152 = load i8, ptr %15, align 1
  %153 = call i32 @SDL_MapRGBA_REAL(ptr noundef %145, ptr noundef %148, i8 noundef zeroext %149, i8 noundef zeroext %150, i8 noundef zeroext %151, i8 noundef zeroext %152)
  store i32 %153, ptr %16, align 4
  %154 = load ptr, ptr %18, align 8
  %155 = load i64, ptr %17, align 8
  call void @llvm.memcpy.p0.p0.i64(ptr align 1 %154, ptr align 4 %16, i64 %155, i1 false)
  store i8 1, ptr %19, align 1
  br label %197

156:                                              ; preds = %135, %112
  %157 = load ptr, ptr %9, align 8
  %158 = getelementptr inbounds nuw %struct.SDL_Surface, ptr %157, i32 0, i32 1
  %159 = load i32, ptr %158, align 4
  %160 = icmp ne i32 %159, 0
  br i1 %160, label %161, label %171

161:                                              ; preds = %156
  %162 = load ptr, ptr %9, align 8
  %163 = getelementptr inbounds nuw %struct.SDL_Surface, ptr %162, i32 0, i32 1
  %164 = load i32, ptr %163, align 4
  %165 = lshr i32 %164, 28
  %166 = and i32 %165, 15
  %167 = icmp ne i32 %166, 1
  br i1 %167, label %168, label %171

168:                                              ; preds = %161
  %169 = call zeroext i1 (ptr, ...) @SDL_SetError_REAL(ptr noundef @.str.14)
  %170 = zext i1 %169 to i8
  store i8 %170, ptr %19, align 1
  br label %196

171:                                              ; preds = %161, %156
  call void @llvm.lifetime.start.p0(i64 4, ptr %21) #8
  %172 = load i8, ptr %12, align 1
  %173 = getelementptr inbounds [4 x i8], ptr %21, i64 0, i64 0
  store i8 %172, ptr %173, align 1
  %174 = load i8, ptr %13, align 1
  %175 = getelementptr inbounds [4 x i8], ptr %21, i64 0, i64 1
  store i8 %174, ptr %175, align 1
  %176 = load i8, ptr %14, align 1
  %177 = getelementptr inbounds [4 x i8], ptr %21, i64 0, i64 2
  store i8 %176, ptr %177, align 1
  %178 = load i8, ptr %15, align 1
  %179 = getelementptr inbounds [4 x i8], ptr %21, i64 0, i64 3
  store i8 %178, ptr %179, align 1
  %180 = getelementptr inbounds [4 x i8], ptr %21, i64 0, i64 0
  %181 = load ptr, ptr %9, align 8
  %182 = getelementptr inbounds nuw %struct.SDL_Surface, ptr %181, i32 0, i32 1
  %183 = load i32, ptr %182, align 4
  %184 = load ptr, ptr %9, align 8
  %185 = getelementptr inbounds nuw %struct.SDL_Surface, ptr %184, i32 0, i32 11
  %186 = load i32, ptr %185, align 8
  %187 = load ptr, ptr %9, align 8
  %188 = getelementptr inbounds nuw %struct.SDL_Surface, ptr %187, i32 0, i32 9
  %189 = load i32, ptr %188, align 4
  %190 = load ptr, ptr %18, align 8
  %191 = load ptr, ptr %9, align 8
  %192 = getelementptr inbounds nuw %struct.SDL_Surface, ptr %191, i32 0, i32 4
  %193 = load i32, ptr %192, align 8
  %194 = call zeroext i1 @SDL_ConvertPixelsAndColorspace_REAL(i32 noundef 1, i32 noundef 1, i32 noundef 376840196, i32 noundef 301991328, i32 noundef 0, ptr noundef %180, i32 noundef 4, i32 noundef %183, i32 noundef %186, i32 noundef %189, ptr noundef %190, i32 noundef %193)
  %195 = zext i1 %194 to i8
  store i8 %195, ptr %19, align 1
  call void @llvm.lifetime.end.p0(i64 4, ptr %21) #8
  br label %196

196:                                              ; preds = %171, %168
  br label %197

197:                                              ; preds = %196, %142
  %198 = load ptr, ptr %9, align 8
  %199 = getelementptr inbounds nuw %struct.SDL_Surface, ptr %198, i32 0, i32 0
  %200 = load i32, ptr %199, align 8
  %201 = and i32 %200, 2
  %202 = icmp eq i32 %201, 2
  br i1 %202, label %203, label %205

203:                                              ; preds = %197
  %204 = load ptr, ptr %9, align 8
  call void @SDL_UnlockSurface_REAL(ptr noundef %204)
  br label %205

205:                                              ; preds = %203, %197
  %206 = load i8, ptr %19, align 1, !range !3, !noundef !4
  %207 = trunc i8 %206 to i1
  store i1 %207, ptr %8, align 1
  store i32 1, ptr %20, align 4
  br label %208

208:                                              ; preds = %205, %110, %56, %45, %34
  call void @llvm.lifetime.end.p0(i64 1, ptr %19) #8
  call void @llvm.lifetime.end.p0(i64 8, ptr %18) #8
  call void @llvm.lifetime.end.p0(i64 8, ptr %17) #8
  call void @llvm.lifetime.end.p0(i64 4, ptr %16) #8
  %209 = load i1, ptr %8, align 1
  ret i1 %209
}