; Function Attrs: nounwind uwtable
define hidden zeroext i1 @SDL_WriteSurfacePixel_REAL(ptr noundef %0, i32 noundef %1, i32 noundef %2, i8 noundef zeroext %3, i8 noundef zeroext %4, i8 noundef zeroext %5, i8 noundef zeroext %6) local_unnamed_addr #2 {
  %8 = alloca i32, align 4
  %9 = alloca [4 x i8], align 1
  call void @llvm.lifetime.start.p0(i64 4, ptr nonnull %8)
  store i32 0, ptr %8, align 4
  %.not.i = icmp eq ptr %0, null
  br i1 %.not.i, label %SDL_SurfaceValid.exit.thread, label %SDL_SurfaceValid.exit

SDL_SurfaceValid.exit:                            ; preds = %7
  %10 = getelementptr inbounds nuw i8, ptr %0, i64 40
  %11 = load ptr, ptr %10, align 8
  %12 = icmp eq ptr %11, @SDL_surface_magic
  br i1 %12, label %13, label %SDL_SurfaceValid.exit.thread

13:                                               ; preds = %SDL_SurfaceValid.exit
  %14 = getelementptr inbounds nuw i8, ptr %0, i64 4
  %15 = load i32, ptr %14, align 4
  %.not = icmp eq i32 %15, 0
  br i1 %.not, label %SDL_SurfaceValid.exit.thread, label %16

16:                                               ; preds = %13
  %17 = getelementptr inbounds nuw i8, ptr %0, i64 24
  %18 = load ptr, ptr %17, align 8
  %.not55 = icmp eq ptr %18, null
  br i1 %.not55, label %SDL_SurfaceValid.exit.thread, label %20

SDL_SurfaceValid.exit.thread:                     ; preds = %7, %16, %13, %SDL_SurfaceValid.exit
  %19 = tail call zeroext i1 (ptr, ...) @SDL_SetError_REAL(ptr noundef nonnull @.str, ptr noundef nonnull @.str.5) #10
  br label %83

20:                                               ; preds = %16
  %21 = icmp slt i32 %1, 0
  br i1 %21, label %25, label %22

22:                                               ; preds = %20
  %23 = getelementptr inbounds nuw i8, ptr %0, i64 8
  %24 = load i32, ptr %23, align 8
  %.not56 = icmp slt i32 %1, %24
  br i1 %.not56, label %27, label %25

25:                                               ; preds = %22, %20
  %26 = tail call zeroext i1 (ptr, ...) @SDL_SetError_REAL(ptr noundef nonnull @.str, ptr noundef nonnull @.str.26) #10
  br label %83

27:                                               ; preds = %22
  %28 = icmp slt i32 %2, 0
  br i1 %28, label %32, label %29

29:                                               ; preds = %27
  %30 = getelementptr inbounds nuw i8, ptr %0, i64 12
  %31 = load i32, ptr %30, align 4
  %.not57 = icmp slt i32 %2, %31
  br i1 %.not57, label %34, label %32

32:                                               ; preds = %29, %27
  %33 = tail call zeroext i1 (ptr, ...) @SDL_SetError_REAL(ptr noundef nonnull @.str, ptr noundef nonnull @.str.27) #10
  br label %83

34:                                               ; preds = %29
  %.mask = and i32 %15, -268435456
  %.not58 = icmp eq i32 %.mask, 268435456
  br i1 %.not58, label %39, label %35

35:                                               ; preds = %34
  switch i32 %15, label %36 [
    i32 844715353, label %41
    i32 1498831189, label %41
    i32 1431918169, label %41
  ]

36:                                               ; preds = %35
  %37 = icmp eq i32 %15, 808530000
  %38 = select i1 %37, i32 2, i32 1
  br label %41

39:                                               ; preds = %34
  %40 = and i32 %15, 255
  br label %41

41:                                               ; preds = %36, %35, %35, %35, %39
  %42 = phi i32 [ %40, %39 ], [ 2, %35 ], [ %38, %36 ], [ 2, %35 ], [ 2, %35 ]
  %43 = zext nneg i32 %42 to i64
  %44 = load i32, ptr %0, align 8
  %45 = and i32 %44, 2
  %.not59 = icmp eq i32 %45, 0
  br i1 %.not59, label %48, label %46

46:                                               ; preds = %41
  %47 = tail call zeroext i1 @SDL_LockSurface_REAL(ptr noundef nonnull %0)
  br i1 %47, label %._crit_edge, label %83

._crit_edge:                                      ; preds = %46
  %.pre = load ptr, ptr %17, align 8
  %.pre68.pre = load i32, ptr %14, align 4
  br label %48

48:                                               ; preds = %._crit_edge, %41
  %.pre68 = phi i32 [ %.pre68.pre, %._crit_edge ], [ %15, %41 ]
  %49 = phi ptr [ %.pre, %._crit_edge ], [ %18, %41 ]
  %50 = getelementptr inbounds nuw i8, ptr %0, i64 16
  %51 = load i32, ptr %50, align 8
  %52 = mul nsw i32 %51, %2
  %53 = sext i32 %52 to i64
  %54 = getelementptr inbounds i8, ptr %49, i64 %53
  %55 = zext nneg i32 %1 to i64
  %56 = mul nuw nsw i64 %43, %55
  %57 = getelementptr inbounds nuw i8, ptr %54, i64 %56
  %58 = icmp samesign ult i32 %42, 5
  br i1 %58, label %60, label %._crit_edge70

._crit_edge70:                                    ; preds = %48
  %.pre71 = and i32 %.pre68, -268435456
  %59 = icmp eq i32 %.pre71, 268435456
  br label %67

60:                                               ; preds = %48
  %.not60 = icmp eq i32 %.pre68, 0
  %.mask62 = and i32 %.pre68, -268435456
  %.not61 = icmp eq i32 %.mask62, 268435456
  %or.cond = or i1 %.not60, %.not61
  br i1 %or.cond, label %61, label %67

61:                                               ; preds = %60
  %62 = getelementptr inbounds nuw i8, ptr %0, i64 56
  %63 = load ptr, ptr %62, align 8
  %64 = getelementptr inbounds nuw i8, ptr %0, i64 72
  %65 = load ptr, ptr %64, align 8
  %66 = tail call i32 @SDL_MapRGBA_REAL(ptr noundef %63, ptr noundef %65, i8 noundef zeroext %3, i8 noundef zeroext %4, i8 noundef zeroext %5, i8 noundef zeroext %6) #10
  store i32 %66, ptr %8, align 4
  call void @llvm.memcpy.p0.p0.i64(ptr align 1 %57, ptr nonnull align 4 %8, i64 %43, i1 false)
  br label %79

67:                                               ; preds = %._crit_edge70, %60
  %.mask65.pre-phi = phi i1 [ %59, %._crit_edge70 ], [ false, %60 ]
  %.not63 = icmp eq i32 %.pre68, 0
  %or.cond67 = or i1 %.not63, %.mask65.pre-phi
  br i1 %or.cond67, label %70, label %68

68:                                               ; preds = %67
  %69 = tail call zeroext i1 (ptr, ...) @SDL_SetError_REAL(ptr noundef nonnull @.str.14) #10
  br label %79

70:                                               ; preds = %67
  call void @llvm.lifetime.start.p0(i64 4, ptr nonnull %9) #10
  store i8 %3, ptr %9, align 1
  %71 = getelementptr inbounds nuw i8, ptr %9, i64 1
  store i8 %4, ptr %71, align 1
  %72 = getelementptr inbounds nuw i8, ptr %9, i64 2
  store i8 %5, ptr %72, align 1
  %73 = getelementptr inbounds nuw i8, ptr %9, i64 3
  store i8 %6, ptr %73, align 1
  %74 = getelementptr inbounds nuw i8, ptr %0, i64 64
  %75 = load i32, ptr %74, align 8
  %76 = getelementptr inbounds nuw i8, ptr %0, i64 52
  %77 = load i32, ptr %76, align 4
  %78 = call zeroext i1 @SDL_ConvertPixelsAndColorspace_REAL(i32 noundef 1, i32 noundef 1, i32 noundef 376840196, i32 noundef 301991328, i32 noundef 0, ptr noundef nonnull %9, i32 noundef 4, i32 noundef %.pre68, i32 noundef %75, i32 noundef %77, ptr noundef %57, i32 noundef %51)
  call void @llvm.lifetime.end.p0(i64 4, ptr nonnull %9) #10
  br label %79

79:                                               ; preds = %68, %70, %61
  %.0.shrunk = phi i1 [ %69, %68 ], [ %78, %70 ], [ true, %61 ]
  %80 = load i32, ptr %0, align 8
  %81 = and i32 %80, 2
  %.not66 = icmp eq i32 %81, 0
  br i1 %.not66, label %83, label %82

82:                                               ; preds = %79
  call void @SDL_UnlockSurface_REAL(ptr noundef nonnull %0)
  br label %83

83:                                               ; preds = %79, %82, %46, %32, %25, %SDL_SurfaceValid.exit.thread
  %.048 = phi i1 [ %26, %25 ], [ %33, %32 ], [ %19, %SDL_SurfaceValid.exit.thread ], [ false, %46 ], [ %.0.shrunk, %82 ], [ %.0.shrunk, %79 ]
  call void @llvm.lifetime.end.p0(i64 4, ptr nonnull %8)
  ret i1 %.048
}